target datalayout = "e-m:e-p270:32:32-p271:32:32-p272:64:64-i64:64-i128:128-f80:128-n8:16:32:64-S128"
target triple = "x86_64-pc-linux-gnu"

; Function Attrs: nounwind uwtable
define internal i64 @highds(i32 noundef %0, i32 noundef %1, i32 noundef %2, i32 noundef %3, ptr noundef %4, i32 noundef %5) #0 {
  %7 = alloca i32, align 4
  %8 = alloca i32, align 4
  %9 = alloca i32, align 4
  %10 = alloca i32, align 4
  %11 = alloca ptr, align 8
  %12 = alloca i32, align 4
  %13 = alloca i64, align 8
  %14 = alloca i32, align 4
  %15 = alloca i32, align 4
  %16 = alloca i32, align 4
  %17 = alloca i32, align 4
  store i32 %0, ptr %7, align 4, !tbaa !36
  store i32 %1, ptr %8, align 4, !tbaa !36
  store i32 %2, ptr %9, align 4, !tbaa !36
  store i32 %3, ptr %10, align 4, !tbaa !36
  store ptr %4, ptr %11, align 8, !tbaa !39
  store i32 %5, ptr %12, align 4, !tbaa !36
  call void @llvm.lifetime.start.p0(i64 8, ptr %13) #12
  store i64 0, ptr %13, align 8, !tbaa !84
  call void @llvm.lifetime.start.p0(i64 4, ptr %14) #12
  %18 = load i32, ptr %8, align 4, !tbaa !36
  store i32 %18, ptr %14, align 4, !tbaa !36
  br label %19

19:                                               ; preds = %448, %6
  %20 = load i32, ptr %14, align 4, !tbaa !36
  %21 = load i32, ptr %10, align 4, !tbaa !36
  %22 = icmp slt i32 %20, %21
  br i1 %22, label %24, label %23

23:                                               ; preds = %19
  store i32 2, ptr %15, align 4
  call void @llvm.lifetime.end.p0(i64 4, ptr %14) #12
  br label %451

24:                                               ; preds = %19
  call void @llvm.lifetime.start.p0(i64 4, ptr %16) #12
  %25 = load i32, ptr %7, align 4, !tbaa !36
  store i32 %25, ptr %16, align 4, !tbaa !36
  br label %26

26:                                               ; preds = %444, %24
  %27 = load i32, ptr %16, align 4, !tbaa !36
  %28 = load i32, ptr %9, align 4, !tbaa !36
  %29 = icmp slt i32 %27, %28
  br i1 %29, label %31, label %30

30:                                               ; preds = %26
  store i32 5, ptr %15, align 4
  call void @llvm.lifetime.end.p0(i64 4, ptr %16) #12
  br label %447

31:                                               ; preds = %26
  call void @llvm.lifetime.start.p0(i64 4, ptr %17) #12
  %32 = load ptr, ptr %11, align 8, !tbaa !39
  %33 = load i32, ptr %14, align 4, !tbaa !36
  %34 = load i32, ptr %12, align 4, !tbaa !36
  %35 = mul nsw i32 %33, %34
  %36 = load i32, ptr %16, align 4, !tbaa !36
  %37 = add nsw i32 %35, %36
  %38 = sext i32 %37 to i64
  %39 = getelementptr inbounds i16, ptr %32, i64 %38
  %40 = load i16, ptr %39, align 2, !tbaa !85
  %41 = sext i16 %40 to i32
  %42 = load ptr, ptr %11, align 8, !tbaa !39
  %43 = load i32, ptr %14, align 4, !tbaa !36
  %44 = load i32, ptr %12, align 4, !tbaa !36
  %45 = mul nsw i32 %43, %44
  %46 = load i32, ptr %16, align 4, !tbaa !36
  %47 = add nsw i32 %45, %46
  %48 = add nsw i32 %47, 1
  %49 = sext i32 %48 to i64
  %50 = getelementptr inbounds i16, ptr %42, i64 %49
  %51 = load i16, ptr %50, align 2, !tbaa !85
  %52 = sext i16 %51 to i32
  %53 = add nsw i32 %41, %52
  %54 = load ptr, ptr %11, align 8, !tbaa !39
  %55 = load i32, ptr %14, align 4, !tbaa !36
  %56 = add nsw i32 %55, 1
  %57 = load i32, ptr %12, align 4, !tbaa !36
  %58 = mul nsw i32 %56, %57
  %59 = load i32, ptr %16, align 4, !tbaa !36
  %60 = add nsw i32 %58, %59
  %61 = sext i32 %60 to i64
  %62 = getelementptr inbounds i16, ptr %54, i64 %61
  %63 = load i16, ptr %62, align 2, !tbaa !85
  %64 = sext i16 %63 to i32
  %65 = add nsw i32 %53, %64
  %66 = load ptr, ptr %11, align 8, !tbaa !39
  %67 = load i32, ptr %14, align 4, !tbaa !36
  %68 = add nsw i32 %67, 1
  %69 = load i32, ptr %12, align 4, !tbaa !36
  %70 = mul nsw i32 %68, %69
  %71 = load i32, ptr %16, align 4, !tbaa !36
  %72 = add nsw i32 %70, %71
  %73 = add nsw i32 %72, 1
  %74 = sext i32 %73 to i64
  %75 = getelementptr inbounds i16, ptr %66, i64 %74
  %76 = load i16, ptr %75, align 2, !tbaa !85
  %77 = sext i16 %76 to i32
  %78 = add nsw i32 %65, %77
  %79 = mul nsw i32 12, %78
  %80 = load ptr, ptr %11, align 8, !tbaa !39
  %81 = load i32, ptr %14, align 4, !tbaa !36
  %82 = sub nsw i32 %81, 1
  %83 = load i32, ptr %12, align 4, !tbaa !36
  %84 = mul nsw i32 %82, %83
  %85 = load i32, ptr %16, align 4, !tbaa !36
  %86 = add nsw i32 %84, %85
  %87 = sext i32 %86 to i64
  %88 = getelementptr inbounds i16, ptr %80, i64 %87
  %89 = load i16, ptr %88, align 2, !tbaa !85
  %90 = sext i16 %89 to i32
  %91 = load ptr, ptr %11, align 8, !tbaa !39
  %92 = load i32, ptr %14, align 4, !tbaa !36
  %93 = sub nsw i32 %92, 1
  %94 = load i32, ptr %12, align 4, !tbaa !36
  %95 = mul nsw i32 %93, %94
  %96 = load i32, ptr %16, align 4, !tbaa !36
  %97 = add nsw i32 %95, %96
  %98 = add nsw i32 %97, 1
  %99 = sext i32 %98 to i64
  %100 = getelementptr inbounds i16, ptr %91, i64 %99
  %101 = load i16, ptr %100, align 2, !tbaa !85
  %102 = sext i16 %101 to i32
  %103 = add nsw i32 %90, %102
  %104 = load ptr, ptr %11, align 8, !tbaa !39
  %105 = load i32, ptr %14, align 4, !tbaa !36
  %106 = add nsw i32 %105, 2
  %107 = load i32, ptr %12, align 4, !tbaa !36
  %108 = mul nsw i32 %106, %107
  %109 = load i32, ptr %16, align 4, !tbaa !36
  %110 = add nsw i32 %108, %109
  %111 = sext i32 %110 to i64
  %112 = getelementptr inbounds i16, ptr %104, i64 %111
  %113 = load i16, ptr %112, align 2, !tbaa !85
  %114 = sext i16 %113 to i32
  %115 = add nsw i32 %103, %114
  %116 = load ptr, ptr %11, align 8, !tbaa !39
  %117 = load i32, ptr %14, align 4, !tbaa !36
  %118 = add nsw i32 %117, 2
  %119 = load i32, ptr %12, align 4, !tbaa !36
  %120 = mul nsw i32 %118, %119
  %121 = load i32, ptr %16, align 4, !tbaa !36
  %122 = add nsw i32 %120, %121
  %123 = add nsw i32 %122, 1
  %124 = sext i32 %123 to i64
  %125 = getelementptr inbounds i16, ptr %116, i64 %124
  %126 = load i16, ptr %125, align 2, !tbaa !85
  %127 = sext i16 %126 to i32
  %128 = add nsw i32 %115, %127
  %129 = mul nsw i32 3, %128
  %130 = sub nsw i32 %79, %129
  %131 = load ptr, ptr %11, align 8, !tbaa !39
  %132 = load i32, ptr %14, align 4, !tbaa !36
  %133 = load i32, ptr %12, align 4, !tbaa !36
  %134 = mul nsw i32 %132, %133
  %135 = load i32, ptr %16, align 4, !tbaa !36
  %136 = add nsw i32 %134, %135
  %137 = sub nsw i32 %136, 1
  %138 = sext i32 %137 to i64
  %139 = getelementptr inbounds i16, ptr %131, i64 %138
  %140 = load i16, ptr %139, align 2, !tbaa !85
  %141 = sext i16 %140 to i32
  %142 = load ptr, ptr %11, align 8, !tbaa !39
  %143 = load i32, ptr %14, align 4, !tbaa !36
  %144 = load i32, ptr %12, align 4, !tbaa !36
  %145 = mul nsw i32 %143, %144
  %146 = load i32, ptr %16, align 4, !tbaa !36
  %147 = add nsw i32 %145, %146
  %148 = add nsw i32 %147, 2
  %149 = sext i32 %148 to i64
  %150 = getelementptr inbounds i16, ptr %142, i64 %149
  %151 = load i16, ptr %150, align 2, !tbaa !85
  %152 = sext i16 %151 to i32
  %153 = add nsw i32 %141, %152
  %154 = load ptr, ptr %11, align 8, !tbaa !39
  %155 = load i32, ptr %14, align 4, !tbaa !36
  %156 = add nsw i32 %155, 1
  %157 = load i32, ptr %12, align 4, !tbaa !36
  %158 = mul nsw i32 %156, %157
  %159 = load i32, ptr %16, align 4, !tbaa !36
  %160 = add nsw i32 %158, %159
  %161 = sub nsw i32 %160, 1
  %162 = sext i32 %161 to i64
  %163 = getelementptr inbounds i16, ptr %154, i64 %162
  %164 = load i16, ptr %163, align 2, !tbaa !85
  %165 = sext i16 %164 to i32
  %166 = add nsw i32 %153, %165
  %167 = load ptr, ptr %11, align 8, !tbaa !39
  %168 = load i32, ptr %14, align 4, !tbaa !36
  %169 = add nsw i32 %168, 1
  %170 = load i32, ptr %12, align 4, !tbaa !36
  %171 = mul nsw i32 %169, %170
  %172 = load i32, ptr %16, align 4, !tbaa !36
  %173 = add nsw i32 %171, %172
  %174 = add nsw i32 %173, 2
  %175 = sext i32 %174 to i64
  %176 = getelementptr inbounds i16, ptr %167, i64 %175
  %177 = load i16, ptr %176, align 2, !tbaa !85
  %178 = sext i16 %177 to i32
  %179 = add nsw i32 %166, %178
  %180 = mul nsw i32 3, %179
  %181 = sub nsw i32 %130, %180
  %182 = load ptr, ptr %11, align 8, !tbaa !39
  %183 = load i32, ptr %14, align 4, !tbaa !36
  %184 = sub nsw i32 %183, 1
  %185 = load i32, ptr %12, align 4, !tbaa !36
  %186 = mul nsw i32 %184, %185
  %187 = load i32, ptr %16, align 4, !tbaa !36
  %188 = add nsw i32 %186, %187
  %189 = sub nsw i32 %188, 1
  %190 = sext i32 %189 to i64
  %191 = getelementptr inbounds i16, ptr %182, i64 %190
  %192 = load i16, ptr %191, align 2, !tbaa !85
  %193 = sext i16 %192 to i32
  %194 = load ptr, ptr %11, align 8, !tbaa !39
  %195 = load i32, ptr %14, align 4, !tbaa !36
  %196 = sub nsw i32 %195, 1
  %197 = load i32, ptr %12, align 4, !tbaa !36
  %198 = mul nsw i32 %196, %197
  %199 = load i32, ptr %16, align 4, !tbaa !36
  %200 = add nsw i32 %198, %199
  %201 = add nsw i32 %200, 2
  %202 = sext i32 %201 to i64
  %203 = getelementptr inbounds i16, ptr %194, i64 %202
  %204 = load i16, ptr %203, align 2, !tbaa !85
  %205 = sext i16 %204 to i32
  %206 = add nsw i32 %193, %205
  %207 = load ptr, ptr %11, align 8, !tbaa !39
  %208 = load i32, ptr %14, align 4, !tbaa !36
  %209 = add nsw i32 %208, 2
  %210 = load i32, ptr %12, align 4, !tbaa !36
  %211 = mul nsw i32 %209, %210
  %212 = load i32, ptr %16, align 4, !tbaa !36
  %213 = add nsw i32 %211, %212
  %214 = sub nsw i32 %213, 1
  %215 = sext i32 %214 to i64
  %216 = getelementptr inbounds i16, ptr %207, i64 %215
  %217 = load i16, ptr %216, align 2, !tbaa !85
  %218 = sext i16 %217 to i32
  %219 = add nsw i32 %206, %218
  %220 = load ptr, ptr %11, align 8, !tbaa !39
  %221 = load i32, ptr %14, align 4, !tbaa !36
  %222 = add nsw i32 %221, 2
  %223 = load i32, ptr %12, align 4, !tbaa !36
  %224 = mul nsw i32 %222, %223
  %225 = load i32, ptr %16, align 4, !tbaa !36
  %226 = add nsw i32 %224, %225
  %227 = add nsw i32 %226, 2
  %228 = sext i32 %227 to i64
  %229 = getelementptr inbounds i16, ptr %220, i64 %228
  %230 = load i16, ptr %229, align 2, !tbaa !85
  %231 = sext i16 %230 to i32
  %232 = add nsw i32 %219, %231
  %233 = mul nsw i32 2, %232
  %234 = sub nsw i32 %181, %233
  %235 = load ptr, ptr %11, align 8, !tbaa !39
  %236 = load i32, ptr %14, align 4, !tbaa !36
  %237 = sub nsw i32 %236, 2
  %238 = load i32, ptr %12, align 4, !tbaa !36
  %239 = mul nsw i32 %237, %238
  %240 = load i32, ptr %16, align 4, !tbaa !36
  %241 = add nsw i32 %239, %240
  %242 = sub nsw i32 %241, 1
  %243 = sext i32 %242 to i64
  %244 = getelementptr inbounds i16, ptr %235, i64 %243
  %245 = load i16, ptr %244, align 2, !tbaa !85
  %246 = sext i16 %245 to i32
  %247 = load ptr, ptr %11, align 8, !tbaa !39
  %248 = load i32, ptr %14, align 4, !tbaa !36
  %249 = sub nsw i32 %248, 2
  %250 = load i32, ptr %12, align 4, !tbaa !36
  %251 = mul nsw i32 %249, %250
  %252 = load i32, ptr %16, align 4, !tbaa !36
  %253 = add nsw i32 %251, %252
  %254 = sext i32 %253 to i64
  %255 = getelementptr inbounds i16, ptr %247, i64 %254
  %256 = load i16, ptr %255, align 2, !tbaa !85
  %257 = sext i16 %256 to i32
  %258 = add nsw i32 %246, %257
  %259 = load ptr, ptr %11, align 8, !tbaa !39
  %260 = load i32, ptr %14, align 4, !tbaa !36
  %261 = sub nsw i32 %260, 2
  %262 = load i32, ptr %12, align 4, !tbaa !36
  %263 = mul nsw i32 %261, %262
  %264 = load i32, ptr %16, align 4, !tbaa !36
  %265 = add nsw i32 %263, %264
  %266 = add nsw i32 %265, 1
  %267 = sext i32 %266 to i64
  %268 = getelementptr inbounds i16, ptr %259, i64 %267
  %269 = load i16, ptr %268, align 2, !tbaa !85
  %270 = sext i16 %269 to i32
  %271 = add nsw i32 %258, %270
  %272 = load ptr, ptr %11, align 8, !tbaa !39
  %273 = load i32, ptr %14, align 4, !tbaa !36
  %274 = sub nsw i32 %273, 2
  %275 = load i32, ptr %12, align 4, !tbaa !36
  %276 = mul nsw i32 %274, %275
  %277 = load i32, ptr %16, align 4, !tbaa !36
  %278 = add nsw i32 %276, %277
  %279 = add nsw i32 %278, 2
  %280 = sext i32 %279 to i64
  %281 = getelementptr inbounds i16, ptr %272, i64 %280
  %282 = load i16, ptr %281, align 2, !tbaa !85
  %283 = sext i16 %282 to i32
  %284 = add nsw i32 %271, %283
  %285 = load ptr, ptr %11, align 8, !tbaa !39
  %286 = load i32, ptr %14, align 4, !tbaa !36
  %287 = add nsw i32 %286, 3
  %288 = load i32, ptr %12, align 4, !tbaa !36
  %289 = mul nsw i32 %287, %288
  %290 = load i32, ptr %16, align 4, !tbaa !36
  %291 = add nsw i32 %289, %290
  %292 = sub nsw i32 %291, 1
  %293 = sext i32 %292 to i64
  %294 = getelementptr inbounds i16, ptr %285, i64 %293
  %295 = load i16, ptr %294, align 2, !tbaa !85
  %296 = sext i16 %295 to i32
  %297 = add nsw i32 %284, %296
  %298 = load ptr, ptr %11, align 8, !tbaa !39
  %299 = load i32, ptr %14, align 4, !tbaa !36
  %300 = add nsw i32 %299, 3
  %301 = load i32, ptr %12, align 4, !tbaa !36
  %302 = mul nsw i32 %300, %301
  %303 = load i32, ptr %16, align 4, !tbaa !36
  %304 = add nsw i32 %302, %303
  %305 = sext i32 %304 to i64
  %306 = getelementptr inbounds i16, ptr %298, i64 %305
  %307 = load i16, ptr %306, align 2, !tbaa !85
  %308 = sext i16 %307 to i32
  %309 = add nsw i32 %297, %308
  %310 = load ptr, ptr %11, align 8, !tbaa !39
  %311 = load i32, ptr %14, align 4, !tbaa !36
  %312 = add nsw i32 %311, 3
  %313 = load i32, ptr %12, align 4, !tbaa !36
  %314 = mul nsw i32 %312, %313
  %315 = load i32, ptr %16, align 4, !tbaa !36
  %316 = add nsw i32 %314, %315
  %317 = add nsw i32 %316, 1
  %318 = sext i32 %317 to i64
  %319 = getelementptr inbounds i16, ptr %310, i64 %318
  %320 = load i16, ptr %319, align 2, !tbaa !85
  %321 = sext i16 %320 to i32
  %322 = add nsw i32 %309, %321
  %323 = load ptr, ptr %11, align 8, !tbaa !39
  %324 = load i32, ptr %14, align 4, !tbaa !36
  %325 = add nsw i32 %324, 3
  %326 = load i32, ptr %12, align 4, !tbaa !36
  %327 = mul nsw i32 %325, %326
  %328 = load i32, ptr %16, align 4, !tbaa !36
  %329 = add nsw i32 %327, %328
  %330 = add nsw i32 %329, 2
  %331 = sext i32 %330 to i64
  %332 = getelementptr inbounds i16, ptr %323, i64 %331
  %333 = load i16, ptr %332, align 2, !tbaa !85
  %334 = sext i16 %333 to i32
  %335 = add nsw i32 %322, %334
  %336 = load ptr, ptr %11, align 8, !tbaa !39
  %337 = load i32, ptr %14, align 4, !tbaa !36
  %338 = sub nsw i32 %337, 1
  %339 = load i32, ptr %12, align 4, !tbaa !36
  %340 = mul nsw i32 %338, %339
  %341 = load i32, ptr %16, align 4, !tbaa !36
  %342 = add nsw i32 %340, %341
  %343 = sub nsw i32 %342, 2
  %344 = sext i32 %343 to i64
  %345 = getelementptr inbounds i16, ptr %336, i64 %344
  %346 = load i16, ptr %345, align 2, !tbaa !85
  %347 = sext i16 %346 to i32
  %348 = add nsw i32 %335, %347
  %349 = load ptr, ptr %11, align 8, !tbaa !39
  %350 = load i32, ptr %14, align 4, !tbaa !36
  %351 = load i32, ptr %12, align 4, !tbaa !36
  %352 = mul nsw i32 %350, %351
  %353 = load i32, ptr %16, align 4, !tbaa !36
  %354 = add nsw i32 %352, %353
  %355 = sub nsw i32 %354, 2
  %356 = sext i32 %355 to i64
  %357 = getelementptr inbounds i16, ptr %349, i64 %356
  %358 = load i16, ptr %357, align 2, !tbaa !85
  %359 = sext i16 %358 to i32
  %360 = add nsw i32 %348, %359
  %361 = load ptr, ptr %11, align 8, !tbaa !39
  %362 = load i32, ptr %14, align 4, !tbaa !36
  %363 = add nsw i32 %362, 1
  %364 = load i32, ptr %12, align 4, !tbaa !36
  %365 = mul nsw i32 %363, %364
  %366 = load i32, ptr %16, align 4, !tbaa !36
  %367 = add nsw i32 %365, %366
  %368 = sub nsw i32 %367, 2
  %369 = sext i32 %368 to i64
  %370 = getelementptr inbounds i16, ptr %361, i64 %369
  %371 = load i16, ptr %370, align 2, !tbaa !85
  %372 = sext i16 %371 to i32
  %373 = add nsw i32 %360, %372
  %374 = load ptr, ptr %11, align 8, !tbaa !39
  %375 = load i32, ptr %14, align 4, !tbaa !36
  %376 = add nsw i32 %375, 2
  %377 = load i32, ptr %12, align 4, !tbaa !36
  %378 = mul nsw i32 %376, %377
  %379 = load i32, ptr %16, align 4, !tbaa !36
  %380 = add nsw i32 %378, %379
  %381 = sub nsw i32 %380, 2
  %382 = sext i32 %381 to i64
  %383 = getelementptr inbounds i16, ptr %374, i64 %382
  %384 = load i16, ptr %383, align 2, !tbaa !85
  %385 = sext i16 %384 to i32
  %386 = add nsw i32 %373, %385
  %387 = load ptr, ptr %11, align 8, !tbaa !39
  %388 = load i32, ptr %14, align 4, !tbaa !36
  %389 = sub nsw i32 %388, 1
  %390 = load i32, ptr %12, align 4, !tbaa !36
  %391 = mul nsw i32 %389, %390
  %392 = load i32, ptr %16, align 4, !tbaa !36
  %393 = add nsw i32 %391, %392
  %394 = add nsw i32 %393, 3
  %395 = sext i32 %394 to i64
  %396 = getelementptr inbounds i16, ptr %387, i64 %395
  %397 = load i16, ptr %396, align 2, !tbaa !85
  %398 = sext i16 %397 to i32
  %399 = add nsw i32 %386, %398
  %400 = load ptr, ptr %11, align 8, !tbaa !39
  %401 = load i32, ptr %14, align 4, !tbaa !36
  %402 = load i32, ptr %12, align 4, !tbaa !36
  %403 = mul nsw i32 %401, %402
  %404 = load i32, ptr %16, align 4, !tbaa !36
  %405 = add nsw i32 %403, %404
  %406 = add nsw i32 %405, 3
  %407 = sext i32 %406 to i64
  %408 = getelementptr inbounds i16, ptr %400, i64 %407
  %409 = load i16, ptr %408, align 2, !tbaa !85
  %410 = sext i16 %409 to i32
  %411 = add nsw i32 %399, %410
  %412 = load ptr, ptr %11, align 8, !tbaa !39
  %413 = load i32, ptr %14, align 4, !tbaa !36
  %414 = add nsw i32 %413, 1
  %415 = load i32, ptr %12, align 4, !tbaa !36
  %416 = mul nsw i32 %414, %415
  %417 = load i32, ptr %16, align 4, !tbaa !36
  %418 = add nsw i32 %416, %417
  %419 = add nsw i32 %418, 3
  %420 = sext i32 %419 to i64
  %421 = getelementptr inbounds i16, ptr %412, i64 %420
  %422 = load i16, ptr %421, align 2, !tbaa !85
  %423 = sext i16 %422 to i32
  %424 = add nsw i32 %411, %423
  %425 = load ptr, ptr %11, align 8, !tbaa !39
  %426 = load i32, ptr %14, align 4, !tbaa !36
  %427 = add nsw i32 %426, 2
  %428 = load i32, ptr %12, align 4, !tbaa !36
  %429 = mul nsw i32 %427, %428
  %430 = load i32, ptr %16, align 4, !tbaa !36
  %431 = add nsw i32 %429, %430
  %432 = add nsw i32 %431, 3
  %433 = sext i32 %432 to i64
  %434 = getelementptr inbounds i16, ptr %425, i64 %433
  %435 = load i16, ptr %434, align 2, !tbaa !85
  %436 = sext i16 %435 to i32
  %437 = add nsw i32 %424, %436
  %438 = sub nsw i32 %234, %437
  store i32 %438, ptr %17, align 4, !tbaa !36
  %439 = load i32, ptr %17, align 4, !tbaa !36
  %440 = call i32 @llvm.abs.i32(i32 %439, i1 true)
  %441 = sext i32 %440 to i64
  %442 = load i64, ptr %13, align 8, !tbaa !84
  %443 = add i64 %442, %441
  store i64 %443, ptr %13, align 8, !tbaa !84
  call void @llvm.lifetime.end.p0(i64 4, ptr %17) #12
  br label %444

444:                                              ; preds = %31
  %445 = load i32, ptr %16, align 4, !tbaa !36
  %446 = add nsw i32 %445, 2
  store i32 %446, ptr %16, align 4, !tbaa !36
  br label %26, !llvm.loop !87

447:                                              ; preds = %30
  br label %448

448:                                              ; preds = %447
  %449 = load i32, ptr %14, align 4, !tbaa !36
  %450 = add nsw i32 %449, 2
  store i32 %450, ptr %14, align 4, !tbaa !36
  br label %19, !llvm.loop !88

451:                                              ; preds = %23
  %452 = load i64, ptr %13, align 8, !tbaa !84
  store i32 1, ptr %15, align 4
  call void @llvm.lifetime.end.p0(i64 8, ptr %13) #12
  ret i64 %452
}