; Function Attrs: nofree norecurse nosync nounwind memory(argmem: read) uwtable
define internal i64 @highds(i32 noundef %0, i32 noundef %1, i32 noundef %2, i32 noundef %3, ptr noundef readonly captures(none) %4, i32 noundef %5) #4 {
  %7 = icmp slt i32 %1, %3
  %8 = icmp slt i32 %0, %2
  %or.cond = and i1 %7, %8
  br i1 %or.cond, label %.preheader.us.preheader, label %._crit_edge178

.preheader.us.preheader:                          ; preds = %6
  %9 = sext i32 %0 to i64
  %10 = sext i32 %2 to i64
  %11 = sext i32 %1 to i64
  %12 = sext i32 %3 to i64
  %13 = sext i32 %5 to i64
  br label %.preheader.us

.preheader.us:                                    ; preds = %.preheader.us.preheader, %._crit_edge.us
  %indvars.iv182 = phi i64 [ %11, %.preheader.us.preheader ], [ %indvars.iv.next183, %._crit_edge.us ]
  %.0177.us = phi i64 [ 0, %.preheader.us.preheader ], [ %148, %._crit_edge.us ]
  %14 = mul nsw i64 %indvars.iv182, %13
  %15 = add nsw i64 %indvars.iv182, 1
  %16 = mul nsw i64 %15, %13
  %17 = add nsw i64 %indvars.iv182, -1
  %18 = mul nsw i64 %17, %13
  %indvars.iv.next183 = add nsw i64 %indvars.iv182, 2
  %19 = mul nsw i64 %indvars.iv.next183, %13
  %20 = add nsw i64 %indvars.iv182, -2
  %21 = mul nsw i64 %20, %13
  %22 = add nsw i64 %indvars.iv182, 3
  %23 = mul nsw i64 %22, %13
  %invariant.gep = getelementptr i16, ptr %4, i64 %14
  %invariant.gep185 = getelementptr i16, ptr %4, i64 %16
  %invariant.gep187 = getelementptr i16, ptr %4, i64 %18
  %invariant.gep189 = getelementptr i16, ptr %4, i64 %19
  %invariant.gep191 = getelementptr i16, ptr %4, i64 %21
  %invariant.gep193 = getelementptr i16, ptr %4, i64 %23
  br label %24

24:                                               ; preds = %.preheader.us, %24
  %indvars.iv = phi i64 [ %9, %.preheader.us ], [ %indvars.iv.next, %24 ]
  %.1175.us = phi i64 [ %.0177.us, %.preheader.us ], [ %148, %24 ]
  %gep = getelementptr i16, ptr %invariant.gep, i64 %indvars.iv
  %25 = load i16, ptr %gep, align 2, !tbaa !74
  %26 = sext i16 %25 to i32
  %27 = getelementptr i8, ptr %gep, i64 2
  %28 = load i16, ptr %27, align 2, !tbaa !74
  %29 = sext i16 %28 to i32
  %30 = add nsw i32 %29, %26
  %gep186 = getelementptr i16, ptr %invariant.gep185, i64 %indvars.iv
  %31 = load i16, ptr %gep186, align 2, !tbaa !74
  %32 = sext i16 %31 to i32
  %33 = add nsw i32 %30, %32
  %34 = getelementptr i8, ptr %gep186, i64 2
  %35 = load i16, ptr %34, align 2, !tbaa !74
  %36 = sext i16 %35 to i32
  %37 = add nsw i32 %33, %36
  %38 = mul nsw i32 %37, 12
  %gep188 = getelementptr i16, ptr %invariant.gep187, i64 %indvars.iv
  %39 = load i16, ptr %gep188, align 2, !tbaa !74
  %40 = sext i16 %39 to i32
  %41 = getelementptr i8, ptr %gep188, i64 2
  %42 = load i16, ptr %41, align 2, !tbaa !74
  %43 = sext i16 %42 to i32
  %gep190 = getelementptr i16, ptr %invariant.gep189, i64 %indvars.iv
  %44 = load i16, ptr %gep190, align 2, !tbaa !74
  %45 = sext i16 %44 to i32
  %46 = getelementptr i8, ptr %gep190, i64 2
  %47 = load i16, ptr %46, align 2, !tbaa !74
  %48 = sext i16 %47 to i32
  %49 = getelementptr i8, ptr %gep, i64 -2
  %50 = load i16, ptr %49, align 2, !tbaa !74
  %51 = sext i16 %50 to i32
  %52 = getelementptr i8, ptr %gep, i64 4
  %53 = load i16, ptr %52, align 2, !tbaa !74
  %54 = sext i16 %53 to i32
  %55 = getelementptr i8, ptr %gep186, i64 -2
  %56 = load i16, ptr %55, align 2, !tbaa !74
  %57 = sext i16 %56 to i32
  %58 = getelementptr i8, ptr %gep186, i64 4
  %59 = load i16, ptr %58, align 2, !tbaa !74
  %60 = sext i16 %59 to i32
  %61 = getelementptr i8, ptr %gep188, i64 -2
  %62 = load i16, ptr %61, align 2, !tbaa !74
  %63 = sext i16 %62 to i32
  %64 = getelementptr i8, ptr %gep188, i64 4
  %65 = load i16, ptr %64, align 2, !tbaa !74
  %66 = sext i16 %65 to i32
  %67 = add nsw i32 %66, %63
  %68 = getelementptr i8, ptr %gep190, i64 -2
  %69 = load i16, ptr %68, align 2, !tbaa !74
  %70 = sext i16 %69 to i32
  %71 = add nsw i32 %67, %70
  %72 = getelementptr i8, ptr %gep190, i64 4
  %73 = load i16, ptr %72, align 2, !tbaa !74
  %74 = sext i16 %73 to i32
  %75 = add nsw i32 %71, %74
  %gep192 = getelementptr i16, ptr %invariant.gep191, i64 %indvars.iv
  %76 = getelementptr i8, ptr %gep192, i64 -2
  %77 = load i16, ptr %76, align 2, !tbaa !74
  %78 = sext i16 %77 to i32
  %79 = load i16, ptr %gep192, align 2, !tbaa !74
  %80 = sext i16 %79 to i32
  %81 = getelementptr i8, ptr %gep192, i64 2
  %82 = load i16, ptr %81, align 2, !tbaa !74
  %83 = sext i16 %82 to i32
  %84 = getelementptr i8, ptr %gep192, i64 4
  %85 = load i16, ptr %84, align 2, !tbaa !74
  %86 = sext i16 %85 to i32
  %gep194 = getelementptr i16, ptr %invariant.gep193, i64 %indvars.iv
  %87 = getelementptr i8, ptr %gep194, i64 -2
  %88 = load i16, ptr %87, align 2, !tbaa !74
  %89 = sext i16 %88 to i32
  %90 = load i16, ptr %gep194, align 2, !tbaa !74
  %91 = sext i16 %90 to i32
  %92 = getelementptr i8, ptr %gep194, i64 2
  %93 = load i16, ptr %92, align 2, !tbaa !74
  %94 = sext i16 %93 to i32
  %95 = getelementptr i8, ptr %gep194, i64 4
  %96 = load i16, ptr %95, align 2, !tbaa !74
  %97 = sext i16 %96 to i32
  %98 = getelementptr i8, ptr %gep188, i64 -4
  %99 = load i16, ptr %98, align 2, !tbaa !74
  %100 = sext i16 %99 to i32
  %101 = getelementptr i8, ptr %gep, i64 -4
  %102 = load i16, ptr %101, align 2, !tbaa !74
  %103 = sext i16 %102 to i32
  %104 = getelementptr i8, ptr %gep186, i64 -4
  %105 = load i16, ptr %104, align 2, !tbaa !74
  %106 = sext i16 %105 to i32
  %107 = getelementptr i8, ptr %gep190, i64 -4
  %108 = load i16, ptr %107, align 2, !tbaa !74
  %109 = sext i16 %108 to i32
  %110 = getelementptr i8, ptr %gep188, i64 6
  %111 = load i16, ptr %110, align 2, !tbaa !74
  %112 = sext i16 %111 to i32
  %113 = getelementptr i8, ptr %gep, i64 6
  %114 = load i16, ptr %113, align 2, !tbaa !74
  %115 = sext i16 %114 to i32
  %116 = getelementptr i8, ptr %gep186, i64 6
  %117 = load i16, ptr %116, align 2, !tbaa !74
  %118 = sext i16 %117 to i32
  %119 = getelementptr i8, ptr %gep190, i64 6
  %120 = load i16, ptr %119, align 2, !tbaa !74
  %121 = sext i16 %120 to i32
  %122 = add nsw i32 %43, %40
  %123 = add nsw i32 %122, %45
  %124 = add nsw i32 %123, %48
  %125 = add nsw i32 %124, %51
  %126 = add nsw i32 %125, %54
  %127 = add nsw i32 %126, %57
  %reass.add.us = add nsw i32 %127, %60
  %reass.mul.us = mul nsw i32 %reass.add.us, -3
  %.neg146.us = add nsw i32 %reass.mul.us, %38
  %128 = add nsw i32 %78, %80
  %129 = shl nsw i32 %75, 1
  %130 = add nsw i32 %128, %129
  %131 = add nsw i32 %130, %83
  %132 = add nsw i32 %131, %86
  %133 = add nsw i32 %132, %89
  %134 = add nsw i32 %133, %91
  %135 = add nsw i32 %134, %94
  %136 = add nsw i32 %135, %97
  %137 = add nsw i32 %136, %100
  %138 = add nsw i32 %137, %103
  %139 = add nsw i32 %138, %106
  %140 = add nsw i32 %139, %109
  %141 = add nsw i32 %140, %112
  %142 = add nsw i32 %141, %115
  %143 = add nsw i32 %142, %118
  %144 = add nsw i32 %143, %121
  %145 = sub nsw i32 %.neg146.us, %144
  %146 = tail call i32 @llvm.abs.i32(i32 %145, i1 true)
  %147 = zext nneg i32 %146 to i64
  %148 = add i64 %.1175.us, %147
  %indvars.iv.next = add nsw i64 %indvars.iv, 2
  %149 = icmp slt i64 %indvars.iv.next, %10
  br i1 %149, label %24, label %._crit_edge.us, !llvm.loop !76

._crit_edge.us:                                   ; preds = %24
  %150 = icmp slt i64 %indvars.iv.next183, %12
  br i1 %150, label %.preheader.us, label %._crit_edge178, !llvm.loop !77

._crit_edge178:                                   ; preds = %._crit_edge.us, %6
  %.0.lcssa = phi i64 [ 0, %6 ], [ %148, %._crit_edge.us ]
  ret i64 %.0.lcssa
}